; Function Attrs: mustprogress nounwind willreturn uwtable
define hidden void @sk_free(ptr noundef captures(address_is_null) %0) local_unnamed_addr #6 {
  %2 = icmp eq ptr %0, null
  br i1 %2, label %6, label %3

3:                                                ; preds = %1
  %4 = getelementptr inbounds nuw i8, ptr %0, i64 8
  %5 = load ptr, ptr %4, align 8, !tbaa !6
  tail call void @free(ptr noundef %5) #17
  tail call void @free(ptr noundef nonnull %0) #17
  br label %6

6:                                                ; preds = %1, %3
  ret void
}